; ModuleID = 'source-C-CXX/25/423.c'
source_filename = "source-C-CXX/25/423.c"
target datalayout = "e-m:e-p270:32:32-p271:32:32-p272:64:64-i64:64-f80:128-n8:16:32:64-S128"
target triple = "x86_64-pc-linux-gnu"

%struct._IO_FILE = type { i32, i8*, i8*, i8*, i8*, i8*, i8*, i8*, i8*, i8*, i8*, i8*, %struct._IO_marker*, %struct._IO_FILE*, i32, i32, i64, i16, i8, [1 x i8], i8*, i64, %struct._IO_codecvt*, %struct._IO_wide_data*, %struct._IO_FILE*, i8*, i64, i32, [20 x i8] }
%struct._IO_marker = type opaque
%struct._IO_codecvt = type opaque
%struct._IO_wide_data = type opaque

@.str = private unnamed_addr constant [3 x i8] c"%s\00", align 1
@stdin = external local_unnamed_addr global %struct._IO_FILE*, align 8

; Function Attrs: nounwind sspstrong uwtable
define dso_local i32 @main() local_unnamed_addr #0 {
  %1 = alloca [101 x i8], align 16
  %2 = alloca [101 x i8], align 16
  %3 = getelementptr inbounds [101 x i8], [101 x i8]* %2, i64 0, i64 0
  %4 = getelementptr inbounds [101 x i8], [101 x i8]* %1, i64 0, i64 0
  call void @llvm.lifetime.start.p0i8(i64 101, i8* nonnull %4) #6
  %5 = getelementptr inbounds [101 x i8], [101 x i8]* %2, i64 0, i64 0
  call void @llvm.lifetime.start.p0i8(i64 101, i8* nonnull %5) #6
  %6 = call i32 (i8*, ...) bitcast (i32 (...)* @gets to i32 (i8*, ...)*)(i8* nonnull %4) #6
  %7 = call i64 @strlen(i8* noundef nonnull %4) #7
  call void @llvm.memset.p0i8.i64(i8* noundef nonnull align 16 dereferenceable(101) %3, i8 32, i64 101, i1 false)
  %8 = trunc i64 %7 to i32
  %9 = load i8, i8* %4, align 16, !tbaa !5
  store i8 %9, i8* %5, align 16, !tbaa !5
  %10 = icmp sgt i32 %8, 1
  br i1 %10, label %11, label %34

11:                                               ; preds = %0
  %12 = and i64 %7, 4294967295
  br label %13

13:                                               ; preds = %11, %28
  %14 = phi i64 [ 1, %11 ], [ %32, %28 ]
  %15 = phi i32 [ 1, %11 ], [ %29, %28 ]
  %16 = getelementptr inbounds [101 x i8], [101 x i8]* %1, i64 0, i64 %14
  %17 = load i8, i8* %16, align 1, !tbaa !5
  %18 = icmp eq i8 %17, 32
  br i1 %18, label %19, label %24

19:                                               ; preds = %13
  %20 = add nsw i64 %14, -1
  %21 = getelementptr inbounds [101 x i8], [101 x i8]* %1, i64 0, i64 %20
  %22 = load i8, i8* %21, align 1, !tbaa !5
  %23 = icmp eq i8 %22, 32
  br i1 %23, label %28, label %24

24:                                               ; preds = %19, %13
  %25 = sext i32 %15 to i64
  %26 = getelementptr inbounds [101 x i8], [101 x i8]* %2, i64 0, i64 %25
  store i8 %17, i8* %26, align 1, !tbaa !5
  %27 = add nsw i32 %15, 1
  br label %28

28:                                               ; preds = %19, %24
  %29 = phi i32 [ %27, %24 ], [ %15, %19 ]
  %30 = sext i32 %29 to i64
  %31 = getelementptr inbounds [101 x i8], [101 x i8]* %2, i64 0, i64 %30
  store i8 0, i8* %31, align 1, !tbaa !5
  %32 = add nuw nsw i64 %14, 1
  %33 = icmp eq i64 %32, %12
  br i1 %33, label %34, label %13, !llvm.loop !8

34:                                               ; preds = %28, %0
  %35 = call i32 (i8*, ...) @printf(i8* nonnull dereferenceable(1) getelementptr inbounds ([3 x i8], [3 x i8]* @.str, i64 0, i64 0), i8* nonnull %5)
  %36 = load %struct._IO_FILE*, %struct._IO_FILE** @stdin, align 8, !tbaa !10
  %37 = call i32 @getc(%struct._IO_FILE* %36) #6
  %38 = load %struct._IO_FILE*, %struct._IO_FILE** @stdin, align 8, !tbaa !10
  %39 = call i32 @getc(%struct._IO_FILE* %38) #6
  call void @llvm.lifetime.end.p0i8(i64 101, i8* nonnull %5) #6
  call void @llvm.lifetime.end.p0i8(i64 101, i8* nonnull %4) #6
  ret i32 0
}

; Function Attrs: argmemonly mustprogress nofree nosync nounwind willreturn
declare void @llvm.lifetime.start.p0i8(i64 immarg, i8* nocapture) #1

declare i32 @gets(...) local_unnamed_addr #2

; Function Attrs: argmemonly mustprogress nofree nounwind readonly willreturn
declare i64 @strlen(i8* nocapture) local_unnamed_addr #3

; Function Attrs: nofree nounwind
declare noundef i32 @printf(i8* nocapture noundef readonly, ...) local_unnamed_addr #4

; Function Attrs: argmemonly mustprogress nofree nosync nounwind willreturn
declare void @llvm.lifetime.end.p0i8(i64 immarg, i8* nocapture) #1

; Function Attrs: nofree nounwind
declare noundef i32 @getc(%struct._IO_FILE* nocapture noundef) local_unnamed_addr #4

; Function Attrs: argmemonly nofree nounwind willreturn writeonly
declare void @llvm.memset.p0i8.i64(i8* nocapture writeonly, i8, i64, i1 immarg) #5


!llvm.module.flags = !{!0, !1, !2, !3}
!llvm.ident = !{!4}

!0 = !{i32 1, !"wchar_size", i32 4}
!1 = !{i32 7, !"PIC Level", i32 2}
!2 = !{i32 7, !"PIE Level", i32 2}
!3 = !{i32 7, !"uwtable", i32 1}
!4 = !{!"clang version 13.0.0"}
!5 = !{!6, !6, i64 0}
!6 = !{!"omnipotent char", !7, i64 0}
!7 = !{!"Simple C/C++ TBAA"}
!8 = distinct !{!8, !9}
!9 = !{!"llvm.loop.mustprogress"}
!10 = !{!11, !11, i64 0}
!11 = !{!"any pointer", !6, i64 0}
